target datalayout = "e-m:e-p270:32:32-p271:32:32-p272:64:64-i64:64-i128:128-f80:128-n8:16:32:64-S128"
target triple = "x86_64-pc-linux-gnu"

%struct.regex_matcher = type { %struct.cli_hashtable, i64, ptr, i64, i64, ptr, %struct.cli_matcher, %struct.cli_matcher, %struct.cli_hashset, %struct.cli_matcher, %struct.filter, ptr, i8 }
%struct.cli_hashtable = type { ptr, i64, i64, i64 }
%struct.cli_hashset = type { ptr, ptr, ptr, i32, i32, i32, i32 }
%struct.cli_matcher = type { i32, ptr, ptr, ptr, ptr, i32, i32, i32, i32, i32, %struct.cli_hash_patt, %struct.cli_hash_wild, i32, i32, i32, i32, i32, ptr, ptr, ptr, ptr, ptr, ptr, i32, i32, i8, i8, ptr, i16, i8, i32, ptr, i32, i32, i32, ptr, ptr, i32, ptr, i64, i64, ptr }
%struct.cli_hash_patt = type { [3 x %struct.cli_htu32] }
%struct.cli_htu32 = type { ptr, i64, i64, i64 }
%struct.cli_hash_wild = type { [3 x %struct.cli_sz_hash] }
%struct.cli_sz_hash = type { ptr, ptr, i32 }
%struct.filter = type { [65536 x i8], [65536 x i8], i64 }

@__const.regex_list_add_pattern.remove_end = private unnamed_addr constant [11 x i8] c"([/?].*)?/\00", align 1
@__const.regex_list_add_pattern.remove_end2 = private unnamed_addr constant [10 x i8] c"([/?].*)/\00", align 1
@.str.38 = private unnamed_addr constant [39 x i8] c"new_preg: Unable to reallocate memory\0A\00", align 1
@.str.39 = private unnamed_addr constant [37 x i8] c"new_preg: Unable to allocate memory\0A\00", align 1

; Function Attrs: nounwind uwtable
define internal ptr @new_preg(ptr noundef %0) #0 {
  %2 = alloca ptr, align 8
  %3 = alloca ptr, align 8
  %4 = alloca ptr, align 8
  %5 = alloca i32, align 4
  store ptr %0, ptr %3, align 8, !tbaa !3
  call void @llvm.lifetime.start.p0(i64 8, ptr %4) #11
  %6 = load ptr, ptr %3, align 8, !tbaa !3
  %7 = getelementptr inbounds nuw %struct.regex_matcher, ptr %6, i32 0, i32 11
  %8 = load ptr, ptr %7, align 8, !tbaa !57
  %9 = load ptr, ptr %3, align 8, !tbaa !3
  %10 = getelementptr inbounds nuw %struct.regex_matcher, ptr %9, i32 0, i32 5
  %11 = load ptr, ptr %10, align 8, !tbaa !101
  %12 = load ptr, ptr %3, align 8, !tbaa !3
  %13 = getelementptr inbounds nuw %struct.regex_matcher, ptr %12, i32 0, i32 4
  %14 = load i64, ptr %13, align 8, !tbaa !102
  %15 = add i64 %14, 1
  store i64 %15, ptr %13, align 8, !tbaa !102
  %16 = mul i64 %15, 8
  %17 = call ptr @mpool_realloc(ptr noundef %8, ptr noundef %11, i64 noundef %16)
  %18 = load ptr, ptr %3, align 8, !tbaa !3
  %19 = getelementptr inbounds nuw %struct.regex_matcher, ptr %18, i32 0, i32 5
  store ptr %17, ptr %19, align 8, !tbaa !101
  %20 = load ptr, ptr %3, align 8, !tbaa !3
  %21 = getelementptr inbounds nuw %struct.regex_matcher, ptr %20, i32 0, i32 5
  %22 = load ptr, ptr %21, align 8, !tbaa !101
  %23 = icmp ne ptr %22, null
  br i1 %23, label %25, label %24

24:                                               ; preds = %1
  call void (ptr, ...) @cli_errmsg(ptr noundef @.str.38)
  store ptr null, ptr %2, align 8
  store i32 1, ptr %5, align 4
  br label %44

25:                                               ; preds = %1
  %26 = load ptr, ptr %3, align 8, !tbaa !3
  %27 = getelementptr inbounds nuw %struct.regex_matcher, ptr %26, i32 0, i32 11
  %28 = load ptr, ptr %27, align 8, !tbaa !57
  %29 = call ptr @mpool_malloc(ptr noundef %28, i64 noundef 32)
  store ptr %29, ptr %4, align 8, !tbaa !91
  %30 = load ptr, ptr %4, align 8, !tbaa !91
  %31 = icmp ne ptr %30, null
  br i1 %31, label %33, label %32

32:                                               ; preds = %25
  call void (ptr, ...) @cli_errmsg(ptr noundef @.str.39)
  store ptr null, ptr %2, align 8
  store i32 1, ptr %5, align 4
  br label %44

33:                                               ; preds = %25
  %34 = load ptr, ptr %4, align 8, !tbaa !91
  %35 = load ptr, ptr %3, align 8, !tbaa !3
  %36 = getelementptr inbounds nuw %struct.regex_matcher, ptr %35, i32 0, i32 5
  %37 = load ptr, ptr %36, align 8, !tbaa !101
  %38 = load ptr, ptr %3, align 8, !tbaa !3
  %39 = getelementptr inbounds nuw %struct.regex_matcher, ptr %38, i32 0, i32 4
  %40 = load i64, ptr %39, align 8, !tbaa !102
  %41 = sub i64 %40, 1
  %42 = getelementptr inbounds nuw ptr, ptr %37, i64 %41
  store ptr %34, ptr %42, align 8, !tbaa !91
  %43 = load ptr, ptr %4, align 8, !tbaa !91
  store ptr %43, ptr %2, align 8
  store i32 1, ptr %5, align 4
  br label %44

44:                                               ; preds = %33, %32, %24
  call void @llvm.lifetime.end.p0(i64 8, ptr %4) #11
  %45 = load ptr, ptr %2, align 8
  ret ptr %45
}

; Function Attrs: nounwind uwtable
define i32 @regex_list_add_pattern(ptr noundef %0, ptr noundef %1) #0 {
  %3 = alloca i32, align 4
  %4 = alloca ptr, align 8
  %5 = alloca ptr, align 8
  %6 = alloca i32, align 4
  %7 = alloca ptr, align 8
  %8 = alloca i64, align 8
  %9 = alloca [11 x i8], align 1
  %10 = alloca [10 x i8], align 1
  %11 = alloca i32, align 4
  store ptr %0, ptr %4, align 8, !tbaa !3
  store ptr %1, ptr %5, align 8, !tbaa !8
  call void @llvm.lifetime.start.p0(i64 4, ptr %6) #11
  call void @llvm.lifetime.start.p0(i64 8, ptr %7) #11
  call void @llvm.lifetime.start.p0(i64 8, ptr %8) #11
  call void @llvm.lifetime.start.p0(i64 11, ptr %9) #11
  call void @llvm.memcpy.p0.p0.i64(ptr align 1 %9, ptr align 1 @__const.regex_list_add_pattern.remove_end, i64 11, i1 false)
  call void @llvm.lifetime.start.p0(i64 10, ptr %10) #11
  call void @llvm.memcpy.p0.p0.i64(ptr align 1 %10, ptr align 1 @__const.regex_list_add_pattern.remove_end2, i64 10, i1 false)
  %12 = load ptr, ptr %5, align 8, !tbaa !8
  %13 = call i64 @strlen(ptr noundef %12) #12
  store i64 %13, ptr %8, align 8, !tbaa !19
  %14 = load i64, ptr %8, align 8, !tbaa !19
  %15 = icmp ugt i64 %14, 11
  br i1 %15, label %16, label %33

16:                                               ; preds = %2
  %17 = load ptr, ptr %5, align 8, !tbaa !8
  %18 = load i64, ptr %8, align 8, !tbaa !19
  %19 = sub i64 %18, 11
  %20 = add i64 %19, 1
  %21 = getelementptr inbounds nuw i8, ptr %17, i64 %20
  %22 = getelementptr inbounds [11 x i8], ptr %9, i64 0, i64 0
  %23 = call i32 @strncmp(ptr noundef %21, ptr noundef %22, i64 noundef 10) #12
  %24 = icmp eq i32 %23, 0
  br i1 %24, label %25, label %32

25:                                               ; preds = %16
  %26 = load i64, ptr %8, align 8, !tbaa !19
  %27 = sub i64 %26, 10
  store i64 %27, ptr %8, align 8, !tbaa !19
  %28 = load ptr, ptr %5, align 8, !tbaa !8
  %29 = load i64, ptr %8, align 8, !tbaa !19
  %30 = add i64 %29, 1
  store i64 %30, ptr %8, align 8, !tbaa !19
  %31 = getelementptr inbounds nuw i8, ptr %28, i64 %29
  store i8 47, ptr %31, align 1, !tbaa !18
  br label %32

32:                                               ; preds = %25, %16
  br label %33

33:                                               ; preds = %32, %2
  %34 = load i64, ptr %8, align 8, !tbaa !19
  %35 = icmp ugt i64 %34, 10
  br i1 %35, label %36, label %53

36:                                               ; preds = %33
  %37 = load ptr, ptr %5, align 8, !tbaa !8
  %38 = load i64, ptr %8, align 8, !tbaa !19
  %39 = sub i64 %38, 10
  %40 = add i64 %39, 1
  %41 = getelementptr inbounds nuw i8, ptr %37, i64 %40
  %42 = getelementptr inbounds [10 x i8], ptr %10, i64 0, i64 0
  %43 = call i32 @strncmp(ptr noundef %41, ptr noundef %42, i64 noundef 9) #12
  %44 = icmp eq i32 %43, 0
  br i1 %44, label %45, label %52

45:                                               ; preds = %36
  %46 = load i64, ptr %8, align 8, !tbaa !19
  %47 = sub i64 %46, 9
  store i64 %47, ptr %8, align 8, !tbaa !19
  %48 = load ptr, ptr %5, align 8, !tbaa !8
  %49 = load i64, ptr %8, align 8, !tbaa !19
  %50 = add i64 %49, 1
  store i64 %50, ptr %8, align 8, !tbaa !19
  %51 = getelementptr inbounds nuw i8, ptr %48, i64 %49
  store i8 47, ptr %51, align 1, !tbaa !18
  br label %52

52:                                               ; preds = %45, %36
  br label %53

53:                                               ; preds = %52, %33
  %54 = load ptr, ptr %5, align 8, !tbaa !8
  %55 = load i64, ptr %8, align 8, !tbaa !19
  %56 = getelementptr inbounds nuw i8, ptr %54, i64 %55
  store i8 0, ptr %56, align 1, !tbaa !18
  %57 = load ptr, ptr %4, align 8, !tbaa !3
  %58 = call ptr @new_preg(ptr noundef %57)
  store ptr %58, ptr %7, align 8, !tbaa !91
  %59 = load ptr, ptr %7, align 8, !tbaa !91
  %60 = icmp ne ptr %59, null
  br i1 %60, label %62, label %61

61:                                               ; preds = %53
  store i32 20, ptr %3, align 4
  store i32 1, ptr %11, align 4
  br label %73

62:                                               ; preds = %53
  %63 = load ptr, ptr %5, align 8, !tbaa !8
  %64 = load ptr, ptr %7, align 8, !tbaa !91
  %65 = load ptr, ptr %4, align 8, !tbaa !3
  %66 = call i32 @cli_regex2suffix(ptr noundef %63, ptr noundef %64, ptr noundef @add_pattern_suffix, ptr noundef %65)
  store i32 %66, ptr %6, align 4, !tbaa !12
  %67 = load i32, ptr %6, align 4, !tbaa !12
  %68 = icmp ne i32 %67, 0
  br i1 %68, label %69, label %71

69:                                               ; preds = %62
  %70 = load ptr, ptr %7, align 8, !tbaa !91
  call void @cli_regfree(ptr noundef %70)
  br label %71

71:                                               ; preds = %69, %62
  %72 = load i32, ptr %6, align 4, !tbaa !12
  store i32 %72, ptr %3, align 4
  store i32 1, ptr %11, align 4
  br label %73

73:                                               ; preds = %71, %61
  call void @llvm.lifetime.end.p0(i64 10, ptr %10) #11
  call void @llvm.lifetime.end.p0(i64 11, ptr %9) #11
  call void @llvm.lifetime.end.p0(i64 8, ptr %8) #11
  call void @llvm.lifetime.end.p0(i64 8, ptr %7) #11
  call void @llvm.lifetime.end.p0(i64 4, ptr %6) #11
  %74 = load i32, ptr %3, align 4
  ret i32 %74
}