; Function Attrs: nounwind uwtable
define i32 @regex_list_add_pattern(ptr noundef %0, ptr noundef %1) local_unnamed_addr #0 {
  %3 = tail call i64 @strlen(ptr noundef nonnull dereferenceable(1) %1) #15
  %4 = icmp ugt i64 %3, 11
  br i1 %4, label %5, label %12

5:                                                ; preds = %2
  %6 = getelementptr i8, ptr %1, i64 %3
  %7 = getelementptr i8, ptr %6, i64 -10
  %8 = tail call i32 @strncmp(ptr noundef nonnull dereferenceable(1) %7, ptr noundef nonnull dereferenceable(11) @__const.regex_list_add_pattern.remove_end, i64 noundef 10) #15
  %9 = icmp eq i32 %8, 0
  br i1 %9, label %10, label %.thread

10:                                               ; preds = %5
  %11 = add i64 %3, -9
  store i8 47, ptr %7, align 1, !tbaa !10
  br label %12

12:                                               ; preds = %10, %2
  %.0 = phi i64 [ %11, %10 ], [ %3, %2 ]
  %13 = icmp ugt i64 %.0, 10
  br i1 %13, label %.thread, label %20

.thread:                                          ; preds = %5, %12
  %.029 = phi i64 [ %.0, %12 ], [ %3, %5 ]
  %14 = getelementptr i8, ptr %1, i64 %.029
  %15 = getelementptr i8, ptr %14, i64 -9
  %16 = tail call i32 @strncmp(ptr noundef nonnull dereferenceable(1) %15, ptr noundef nonnull dereferenceable(10) @__const.regex_list_add_pattern.remove_end2, i64 noundef 9) #15
  %17 = icmp eq i32 %16, 0
  br i1 %17, label %18, label %20

18:                                               ; preds = %.thread
  %19 = add i64 %.029, -8
  store i8 47, ptr %15, align 1, !tbaa !10
  br label %20

20:                                               ; preds = %.thread, %18, %12
  %.1 = phi i64 [ %19, %18 ], [ %.029, %.thread ], [ %.0, %12 ]
  %21 = getelementptr inbounds nuw i8, ptr %1, i64 %.1
  store i8 0, ptr %21, align 1, !tbaa !10
  %22 = getelementptr inbounds nuw i8, ptr %0, i64 132440
  %23 = load ptr, ptr %22, align 8, !tbaa !45
  %24 = getelementptr inbounds nuw i8, ptr %0, i64 64
  %25 = load ptr, ptr %24, align 8, !tbaa !74
  %26 = getelementptr inbounds nuw i8, ptr %0, i64 56
  %27 = load i64, ptr %26, align 8, !tbaa !75
  %28 = add i64 %27, 1
  store i64 %28, ptr %26, align 8, !tbaa !75
  %29 = shl i64 %28, 3
  %30 = tail call ptr @mpool_realloc(ptr noundef %23, ptr noundef %25, i64 noundef %29) #14
  store ptr %30, ptr %24, align 8, !tbaa !74
  %.not.i = icmp eq ptr %30, null
  br i1 %.not.i, label %31, label %32

31:                                               ; preds = %20
  tail call void (ptr, ...) @cli_errmsg(ptr noundef nonnull @.str.38) #14
  br label %new_preg.exit.thread

32:                                               ; preds = %20
  %33 = load ptr, ptr %22, align 8, !tbaa !45
  %34 = tail call ptr @mpool_malloc(ptr noundef %33, i64 noundef 32) #14
  %.not13.i = icmp eq ptr %34, null
  br i1 %.not13.i, label %35, label %36

35:                                               ; preds = %32
  tail call void (ptr, ...) @cli_errmsg(ptr noundef nonnull @.str.39) #14
  br label %new_preg.exit.thread

36:                                               ; preds = %32
  %37 = load ptr, ptr %24, align 8, !tbaa !74
  %38 = load i64, ptr %26, align 8, !tbaa !75
  %39 = getelementptr ptr, ptr %37, i64 %38
  %40 = getelementptr i8, ptr %39, i64 -8
  store ptr %34, ptr %40, align 8, !tbaa !37
  %41 = tail call i32 @cli_regex2suffix(ptr noundef nonnull %1, ptr noundef nonnull %34, ptr noundef nonnull @add_pattern_suffix, ptr noundef nonnull %0) #14
  %.not27 = icmp eq i32 %41, 0
  br i1 %.not27, label %new_preg.exit.thread, label %42

42:                                               ; preds = %36
  tail call void @cli_regfree(ptr noundef nonnull %34) #14
  br label %new_preg.exit.thread

new_preg.exit.thread:                             ; preds = %31, %35, %36, %42
  %.023 = phi i32 [ %41, %42 ], [ 0, %36 ], [ 20, %35 ], [ 20, %31 ]
  ret i32 %.023
}